; Function Attrs: mustprogress uwtable
define i32 @uspoof_areBidiConfusable_75(ptr noundef %sc, i32 noundef %direction, ptr noundef %id1, i32 noundef %length1, ptr noundef %id2, i32 noundef %length2, ptr noundef %status) local_unnamed_addr #0 personality ptr @__gxx_personality_v0 {
entry:
  %id1Str = alloca %"class.icu_75::UnicodeString", align 8
  %agg.tmp = alloca %"class.icu_75::ConstChar16Ptr", align 8
  %id2Str = alloca %"class.icu_75::UnicodeString", align 8
  %agg.tmp3 = alloca %"class.icu_75::ConstChar16Ptr", align 8
  %cmp = icmp eq i32 %length1, -1
  %conv = zext i1 %cmp to i8
  store ptr %id1, ptr %agg.tmp, align 8
  invoke void @_ZN6icu_7513UnicodeStringC1EaNS_14ConstChar16PtrEi(ptr noundef nonnull align 8 dereferenceable(64) %id1Str, i8 noundef signext %conv, ptr noundef nonnull %agg.tmp, i32 noundef %length1)
          to label %invoke.cont unwind label %lpad

invoke.cont:                                      ; preds = %entry
  %0 = load ptr, ptr %agg.tmp, align 8
  call void asm sideeffect "", "rm,~{memory},~{dirflag},~{fpsr},~{flags}"(ptr %0) #6, !srcloc !4
  %cmp1 = icmp eq i32 %length2, -1
  %conv2 = zext i1 %cmp1 to i8
  store ptr %id2, ptr %agg.tmp3, align 8
  invoke void @_ZN6icu_7513UnicodeStringC1EaNS_14ConstChar16PtrEi(ptr noundef nonnull align 8 dereferenceable(64) %id2Str, i8 noundef signext %conv2, ptr noundef nonnull %agg.tmp3, i32 noundef %length2)
          to label %invoke.cont7 unwind label %lpad6

invoke.cont7:                                     ; preds = %invoke.cont
  %1 = load ptr, ptr %agg.tmp3, align 8
  call void asm sideeffect "", "rm,~{memory},~{dirflag},~{fpsr},~{flags}"(ptr %1) #6, !srcloc !4
  %fUnion.i = getelementptr inbounds i8, ptr %id1Str, i64 8
  %2 = load i16, ptr %fUnion.i, align 8
  %conv2.i8 = and i16 %2, 1
  %tobool.not = icmp eq i16 %conv2.i8, 0
  br i1 %tobool.not, label %lor.lhs.false, label %if.then

lor.lhs.false:                                    ; preds = %invoke.cont7
  %fUnion.i6 = getelementptr inbounds i8, ptr %id2Str, i64 8
  %3 = load i16, ptr %fUnion.i6, align 8
  %conv2.i79 = and i16 %3, 1
  %tobool12.not = icmp eq i16 %conv2.i79, 0
  br i1 %tobool12.not, label %if.end, label %if.then

if.then:                                          ; preds = %lor.lhs.false, %invoke.cont7
  store i32 1, ptr %status, align 4
  br label %cleanup

lpad:                                             ; preds = %entry
  %4 = landingpad { ptr, i32 }
          cleanup
  %5 = load ptr, ptr %agg.tmp, align 8
  call void asm sideeffect "", "rm,~{memory},~{dirflag},~{fpsr},~{flags}"(ptr %5) #6, !srcloc !4
  br label %eh.resume

lpad6:                                            ; preds = %invoke.cont
  %6 = landingpad { ptr, i32 }
          cleanup
  %7 = load ptr, ptr %agg.tmp3, align 8
  call void asm sideeffect "", "rm,~{memory},~{dirflag},~{fpsr},~{flags}"(ptr %7) #6, !srcloc !4
  br label %ehcleanup

lpad8:                                            ; preds = %if.end
  %8 = landingpad { ptr, i32 }
          cleanup
  call void @_ZN6icu_7513UnicodeStringD1Ev(ptr noundef nonnull align 8 dereferenceable(64) %id2Str) #6
  br label %ehcleanup

if.end:                                           ; preds = %lor.lhs.false
  %call14 = invoke i32 @uspoof_areBidiConfusableUnicodeString_75(ptr noundef %sc, i32 noundef %direction, ptr noundef nonnull align 8 dereferenceable(64) %id1Str, ptr noundef nonnull align 8 dereferenceable(64) %id2Str, ptr noundef %status)
          to label %cleanup unwind label %lpad8, !range !7

cleanup:                                          ; preds = %if.end, %if.then
  %retval.0 = phi i32 [ 0, %if.then ], [ %call14, %if.end ]
  call void @_ZN6icu_7513UnicodeStringD1Ev(ptr noundef nonnull align 8 dereferenceable(64) %id2Str) #6
  call void @_ZN6icu_7513UnicodeStringD1Ev(ptr noundef nonnull align 8 dereferenceable(64) %id1Str) #6
  ret i32 %retval.0

ehcleanup:                                        ; preds = %lpad8, %lpad6
  %.pn = phi { ptr, i32 } [ %8, %lpad8 ], [ %6, %lpad6 ]
  call void @_ZN6icu_7513UnicodeStringD1Ev(ptr noundef nonnull align 8 dereferenceable(64) %id1Str) #6
  br label %eh.resume

eh.resume:                                        ; preds = %ehcleanup, %lpad
  %.pn.pn = phi { ptr, i32 } [ %.pn, %ehcleanup ], [ %4, %lpad ]
  resume { ptr, i32 } %.pn.pn
}